target datalayout = "e-m:e-p270:32:32-p271:32:32-p272:64:64-i64:64-i128:128-f80:128-n8:16:32:64-S128"
target triple = "x86_64-unknown-linux-gnu"

%"class.cineon::Reader" = type { ptr, %"struct.cineon::Header", ptr, ptr, ptr }
%"struct.cineon::Header" = type { %"struct.cineon::GenericHeader", %"struct.cineon::IndustryHeader" }
%"struct.cineon::GenericHeader" = type { i32, i32, i32, i32, i32, i32, [8 x i8], [100 x i8], [12 x i8], [12 x i8], [36 x i8], i8, i8, [2 x i8], [8 x %"struct.cineon::ImageElement"], [2 x float], [2 x float], [2 x float], [2 x float], [200 x i8], [28 x i8], i8, i8, i8, i8, i32, i32, [20 x i8], i32, i32, [100 x i8], [12 x i8], [12 x i8], [64 x i8], [32 x i8], [32 x i8], float, float, float, [40 x i8] }
%"struct.cineon::ImageElement" = type { [2 x i8], i8, i8, i32, i32, float, float, float, float }
%"struct.cineon::IndustryHeader" = type { i8, i8, i8, i8, i32, i32, [32 x i8], i32, float, [32 x i8], [200 x i8], [740 x i8] }

; Function Attrs: mustprogress nounwind uwtable
define linkonce_odr hidden noundef i32 @_ZNK6cineon13GenericHeader8UserSizeEv(ptr noundef nonnull align 4 dereferenceable(1024) %this) #1 comdat align 2 {
entry:
  %this.addr = alloca ptr, align 8
  store ptr %this, ptr %this.addr, align 8
  %this1 = load ptr, ptr %this.addr, align 8
  %userSize = getelementptr inbounds %"struct.cineon::GenericHeader", ptr %this1, i32 0, i32 4
  %0 = load i32, ptr %userSize, align 4
  ret i32 %0
}

; Function Attrs: mustprogress uwtable
define hidden noundef zeroext i1 @_ZN6cineon6Reader12ReadUserDataEPh(ptr noundef nonnull align 8 dereferenceable(2080) %this, ptr noundef %data) #6 align 2 {
entry:
  %retval = alloca i1, align 1
  %this.addr = alloca ptr, align 8
  %data.addr = alloca ptr, align 8
  %rs = alloca i64, align 8
  store ptr %this, ptr %this.addr, align 8
  store ptr %data, ptr %data.addr, align 8
  %this1 = load ptr, ptr %this.addr, align 8
  %header = getelementptr inbounds %"class.cineon::Reader", ptr %this1, i32 0, i32 1
  %call = call noundef i32 @_ZNK6cineon13GenericHeader8UserSizeEv(ptr noundef nonnull align 4 dereferenceable(1024) %header)
  %cmp = icmp eq i32 %call, 0
  br i1 %cmp, label %if.then, label %if.end

if.then:                                          ; preds = %entry
  store i1 true, ptr %retval, align 1
  br label %return

if.end:                                           ; preds = %entry
  %fd = getelementptr inbounds %"class.cineon::Reader", ptr %this1, i32 0, i32 2
  %0 = load ptr, ptr %fd, align 8
  %vtable = load ptr, ptr %0, align 8
  %vfn = getelementptr inbounds ptr, ptr %vtable, i64 8
  %1 = load ptr, ptr %vfn, align 8
  %call2 = call noundef zeroext i1 %1(ptr noundef nonnull align 8 dereferenceable(16) %0, i64 noundef 2048, i32 noundef 0)
  %conv = zext i1 %call2 to i32
  %cmp3 = icmp eq i32 %conv, 0
  br i1 %cmp3, label %if.then4, label %if.end5

if.then4:                                         ; preds = %if.end
  store i1 false, ptr %retval, align 1
  br label %return

if.end5:                                          ; preds = %if.end
  %fd6 = getelementptr inbounds %"class.cineon::Reader", ptr %this1, i32 0, i32 2
  %2 = load ptr, ptr %fd6, align 8
  %3 = load ptr, ptr %data.addr, align 8
  %header7 = getelementptr inbounds %"class.cineon::Reader", ptr %this1, i32 0, i32 1
  %call8 = call noundef i32 @_ZNK6cineon13GenericHeader8UserSizeEv(ptr noundef nonnull align 4 dereferenceable(1024) %header7)
  %conv9 = zext i32 %call8 to i64
  %vtable10 = load ptr, ptr %2, align 8
  %vfn11 = getelementptr inbounds ptr, ptr %vtable10, i64 6
  %4 = load ptr, ptr %vfn11, align 8
  %call12 = call noundef i64 %4(ptr noundef nonnull align 8 dereferenceable(16) %2, ptr noundef %3, i64 noundef %conv9)
  store i64 %call12, ptr %rs, align 8
  %5 = load i64, ptr %rs, align 8
  %header13 = getelementptr inbounds %"class.cineon::Reader", ptr %this1, i32 0, i32 1
  %call14 = call noundef i32 @_ZNK6cineon13GenericHeader8UserSizeEv(ptr noundef nonnull align 4 dereferenceable(1024) %header13)
  %conv15 = zext i32 %call14 to i64
  %cmp16 = icmp ne i64 %5, %conv15
  br i1 %cmp16, label %if.then17, label %if.end18

if.then17:                                        ; preds = %if.end5
  store i1 false, ptr %retval, align 1
  br label %return

if.end18:                                         ; preds = %if.end5
  store i1 true, ptr %retval, align 1
  br label %return

return:                                           ; preds = %if.end18, %if.then17, %if.then4, %if.then
  %6 = load i1, ptr %retval, align 1
  ret i1 %6
}