; Function Attrs: mustprogress uwtable
define hidden noundef zeroext i1 @_ZN6cineon6Reader12ReadUserDataEPh(ptr nocapture noundef nonnull readonly align 8 dereferenceable(2080) %this, ptr noundef %data) local_unnamed_addr #4 align 2 {
entry:
  %userSize.i = getelementptr inbounds i8, ptr %this, i64 24
  %0 = load i32, ptr %userSize.i, align 8
  %cmp = icmp eq i32 %0, 0
  br i1 %cmp, label %return, label %if.end

if.end:                                           ; preds = %entry
  %fd = getelementptr inbounds i8, ptr %this, i64 2056
  %1 = load ptr, ptr %fd, align 8
  %vtable = load ptr, ptr %1, align 8
  %vfn = getelementptr inbounds i8, ptr %vtable, i64 64
  %2 = load ptr, ptr %vfn, align 8
  %call2 = tail call noundef zeroext i1 %2(ptr noundef nonnull align 8 dereferenceable(16) %1, i64 noundef 2048, i32 noundef 0)
  br i1 %call2, label %if.end5, label %return

if.end5:                                          ; preds = %if.end
  %3 = load ptr, ptr %fd, align 8
  %4 = load i32, ptr %userSize.i, align 8
  %conv9 = zext i32 %4 to i64
  %vtable10 = load ptr, ptr %3, align 8
  %vfn11 = getelementptr inbounds i8, ptr %vtable10, i64 48
  %5 = load ptr, ptr %vfn11, align 8
  %call12 = tail call noundef i64 %5(ptr noundef nonnull align 8 dereferenceable(16) %3, ptr noundef %data, i64 noundef %conv9)
  %6 = load i32, ptr %userSize.i, align 8
  %conv15 = zext i32 %6 to i64
  %cmp16.not = icmp eq i64 %call12, %conv15
  br label %return

return:                                           ; preds = %if.end5, %if.end, %entry
  %retval.0 = phi i1 [ true, %entry ], [ false, %if.end ], [ %cmp16.not, %if.end5 ]
  ret i1 %retval.0
}